target datalayout = "e-m:e-p270:32:32-p271:32:32-p272:64:64-i64:64-i128:128-f80:128-n8:16:32:64-S128"
target triple = "x86_64-pc-linux-gnu"

; Function Attrs: nounwind uwtable
define i32 @BN_GF2m_mod_div(ptr noundef %0, ptr noundef %1, ptr noundef %2, ptr noundef %3, ptr noundef %4) #0 {
  %6 = alloca ptr, align 8
  %7 = alloca ptr, align 8
  %8 = alloca ptr, align 8
  %9 = alloca ptr, align 8
  %10 = alloca ptr, align 8
  %11 = alloca ptr, align 8
  %12 = alloca i32, align 4
  store ptr %0, ptr %6, align 8, !tbaa !3
  store ptr %1, ptr %7, align 8, !tbaa !3
  store ptr %2, ptr %8, align 8, !tbaa !3
  store ptr %3, ptr %9, align 8, !tbaa !3
  store ptr %4, ptr %10, align 8, !tbaa !29
  call void @llvm.lifetime.start.p0(i64 8, ptr %11) #3
  store ptr null, ptr %11, align 8, !tbaa !3
  call void @llvm.lifetime.start.p0(i64 4, ptr %12) #3
  store i32 0, ptr %12, align 4, !tbaa !12
  %13 = load ptr, ptr %10, align 8, !tbaa !29
  call void @BN_CTX_start(ptr noundef %13)
  %14 = load ptr, ptr %10, align 8, !tbaa !29
  %15 = call ptr @BN_CTX_get(ptr noundef %14)
  store ptr %15, ptr %11, align 8, !tbaa !3
  %16 = load ptr, ptr %11, align 8, !tbaa !3
  %17 = icmp eq ptr %16, null
  br i1 %17, label %18, label %19

18:                                               ; preds = %5
  br label %37

19:                                               ; preds = %5
  %20 = load ptr, ptr %11, align 8, !tbaa !3
  %21 = load ptr, ptr %8, align 8, !tbaa !3
  %22 = load ptr, ptr %9, align 8, !tbaa !3
  %23 = load ptr, ptr %10, align 8, !tbaa !29
  %24 = call i32 @BN_GF2m_mod_inv(ptr noundef %20, ptr noundef %21, ptr noundef %22, ptr noundef %23)
  %25 = icmp ne i32 %24, 0
  br i1 %25, label %27, label %26

26:                                               ; preds = %19
  br label %37

27:                                               ; preds = %19
  %28 = load ptr, ptr %6, align 8, !tbaa !3
  %29 = load ptr, ptr %7, align 8, !tbaa !3
  %30 = load ptr, ptr %11, align 8, !tbaa !3
  %31 = load ptr, ptr %9, align 8, !tbaa !3
  %32 = load ptr, ptr %10, align 8, !tbaa !29
  %33 = call i32 @BN_GF2m_mod_mul(ptr noundef %28, ptr noundef %29, ptr noundef %30, ptr noundef %31, ptr noundef %32)
  %34 = icmp ne i32 %33, 0
  br i1 %34, label %36, label %35

35:                                               ; preds = %27
  br label %37

36:                                               ; preds = %27
  store i32 1, ptr %12, align 4, !tbaa !12
  br label %37

37:                                               ; preds = %36, %35, %26, %18
  %38 = load ptr, ptr %10, align 8, !tbaa !29
  call void @BN_CTX_end(ptr noundef %38)
  %39 = load i32, ptr %12, align 4, !tbaa !12
  call void @llvm.lifetime.end.p0(i64 4, ptr %12) #3
  call void @llvm.lifetime.end.p0(i64 8, ptr %11) #3
  ret i32 %39
}