; Function Attrs: nounwind uwtable
define range(i32 0, 2) i32 @BN_GF2m_mod_div(ptr noundef %0, ptr noundef captures(address) %1, ptr noundef captures(address) %2, ptr noundef %3, ptr noundef %4) local_unnamed_addr #0 {
  tail call void @BN_CTX_start(ptr noundef %4) #5
  %6 = tail call ptr @BN_CTX_get(ptr noundef %4) #5
  %7 = icmp eq ptr %6, null
  br i1 %7, label %12, label %8

8:                                                ; preds = %5
  %9 = tail call i32 @BN_GF2m_mod_inv(ptr noundef nonnull %6, ptr noundef %2, ptr noundef %3, ptr noundef %4)
  %.not = icmp eq i32 %9, 0
  br i1 %.not, label %12, label %10

10:                                               ; preds = %8
  %11 = tail call i32 @BN_GF2m_mod_mul(ptr noundef %0, ptr noundef %1, ptr noundef nonnull %6, ptr noundef %3, ptr noundef %4)
  %.not14 = icmp ne i32 %11, 0
  %spec.select = zext i1 %.not14 to i32
  br label %12

12:                                               ; preds = %10, %8, %5
  %.0 = phi i32 [ 0, %5 ], [ 0, %8 ], [ %spec.select, %10 ]
  tail call void @BN_CTX_end(ptr noundef %4) #5
  ret i32 %.0
}